; Function Attrs: mustprogress nounwind uwtable
define internal fastcc noundef zeroext i1 @_ZN5clang19RecursiveASTVisitorIZNK12_GLOBAL__N_125UncountedLocalVarsChecker12checkASTDeclEPKNS_19TranslationUnitDeclERNS_4ento15AnalysisManagerERNS6_11BugReporterEE12LocalVisitorE35TraverseDependentSizedExtVectorTypeEPNS_27DependentSizedExtVectorTypeE(ptr noundef nonnull align 1 dereferenceable(1) %0, ptr noundef readonly captures(none) %1) unnamed_addr #0 align 2 {
  %3 = getelementptr inbounds nuw i8, ptr %1, i64 32
  %4 = load ptr, ptr %3, align 16
  %.not = icmp eq ptr %4, null
  br i1 %.not, label %7, label %5

5:                                                ; preds = %2
  %6 = tail call fastcc noundef zeroext i1 @_ZN5clang19RecursiveASTVisitorIZNK12_GLOBAL__N_125UncountedLocalVarsChecker12checkASTDeclEPKNS_19TranslationUnitDeclERNS_4ento15AnalysisManagerERNS6_11BugReporterEE12LocalVisitorE12TraverseStmtEPNS_4StmtEPN4llvm15SmallVectorImplINSF_14PointerIntPairISE_Lj1EbNSF_21PointerLikeTypeTraitsISE_EENSF_18PointerIntPairInfoISE_Lj1ESJ_EEEEEE(ptr noundef nonnull align 1 dereferenceable(1) %0, ptr noundef nonnull %4, ptr noundef null)
  br i1 %6, label %7, label %10

7:                                                ; preds = %2, %5
  %8 = getelementptr inbounds nuw i8, ptr %1, i64 40
  %.sroa.0.0.copyload.i = load i64, ptr %8, align 8
  %9 = tail call fastcc noundef zeroext i1 @_ZN5clang19RecursiveASTVisitorIZNK12_GLOBAL__N_125UncountedLocalVarsChecker12checkASTDeclEPKNS_19TranslationUnitDeclERNS_4ento15AnalysisManagerERNS6_11BugReporterEE12LocalVisitorE12TraverseTypeENS_8QualTypeE(ptr noundef nonnull align 1 dereferenceable(1) %0, i64 %.sroa.0.0.copyload.i)
  br label %10

10:                                               ; preds = %7, %5
  %.0 = phi i1 [ false, %5 ], [ %9, %7 ]
  ret i1 %.0
}